; ModuleID = '45/1991.c'
source_filename = "45/1991.c"
target datalayout = "e-m:e-p270:32:32-p271:32:32-p272:64:64-i64:64-f80:128-n8:16:32:64-S128"
target triple = "x86_64-pc-linux-gnu"

@.str = private unnamed_addr constant [3 x i8] c"%s\00", align 1
@.str.1 = private unnamed_addr constant [3 x i8] c"%d\00", align 1

; Function Attrs: noinline nounwind uwtable
define dso_local i32 @main() #0 {
  %1 = alloca i32, align 4
  %2 = alloca [52 x i8], align 16
  %3 = alloca [52 x i8], align 16
  %4 = alloca i32, align 4
  %5 = alloca i32, align 4
  %6 = alloca i32, align 4
  store i32 0, i32* %1, align 4
  store i32 0, i32* %4, align 4
  %7 = getelementptr inbounds [52 x i8], [52 x i8]* %2, i64 0, i64 0
  %8 = call i32 (i8*, ...) @__isoc99_scanf(i8* getelementptr inbounds ([3 x i8], [3 x i8]* @.str, i64 0, i64 0), i8* %7)
  %9 = getelementptr inbounds [52 x i8], [52 x i8]* %3, i64 0, i64 0
  %10 = call i32 (i8*, ...) @__isoc99_scanf(i8* getelementptr inbounds ([3 x i8], [3 x i8]* @.str, i64 0, i64 0), i8* %9)
  store i32 0, i32* %5, align 4
  br label %11

11:                                               ; preds = %66, %0
  %12 = load i32, i32* %5, align 4
  %13 = sext i32 %12 to i64
  %14 = getelementptr inbounds [52 x i8], [52 x i8]* %3, i64 0, i64 0
  %15 = call i64 @strlen(i8* %14) #3
  %16 = icmp ult i64 %13, %15
  br i1 %16, label %17, label %69

17:                                               ; preds = %11
  %18 = getelementptr inbounds [52 x i8], [52 x i8]* %2, i64 0, i64 0
  %19 = load i8, i8* %18, align 16
  %20 = sext i8 %19 to i32
  %21 = load i32, i32* %5, align 4
  %22 = sext i32 %21 to i64
  %23 = getelementptr inbounds [52 x i8], [52 x i8]* %3, i64 0, i64 %22
  %24 = load i8, i8* %23, align 1
  %25 = sext i8 %24 to i32
  %26 = icmp eq i32 %20, %25
  br i1 %26, label %27, label %65

27:                                               ; preds = %17
  store i32 0, i32* %6, align 4
  br label %28

28:                                               ; preds = %52, %27
  %29 = load i32, i32* %6, align 4
  %30 = sext i32 %29 to i64
  %31 = getelementptr inbounds [52 x i8], [52 x i8]* %2, i64 0, i64 0
  %32 = call i64 @strlen(i8* %31) #3
  %33 = icmp ult i64 %30, %32
  br i1 %33, label %34, label %55

34:                                               ; preds = %28
  %35 = load i32, i32* %6, align 4
  %36 = sext i32 %35 to i64
  %37 = getelementptr inbounds [52 x i8], [52 x i8]* %2, i64 0, i64 %36
  %38 = load i8, i8* %37, align 1
  %39 = sext i8 %38 to i32
  %40 = load i32, i32* %5, align 4
  %41 = load i32, i32* %6, align 4
  %42 = add nsw i32 %40, %41
  %43 = sext i32 %42 to i64
  %44 = getelementptr inbounds [52 x i8], [52 x i8]* %3, i64 0, i64 %43
  %45 = load i8, i8* %44, align 1
  %46 = sext i8 %45 to i32
  %47 = icmp eq i32 %39, %46
  br i1 %47, label %48, label %51

48:                                               ; preds = %34
  %49 = load i32, i32* %4, align 4
  %50 = add nsw i32 %49, 1
  store i32 %50, i32* %4, align 4
  br label %51

51:                                               ; preds = %48, %34
  br label %52

52:                                               ; preds = %51
  %53 = load i32, i32* %6, align 4
  %54 = add nsw i32 %53, 1
  store i32 %54, i32* %6, align 4
  br label %28

55:                                               ; preds = %28
  %56 = load i32, i32* %4, align 4
  %57 = sext i32 %56 to i64
  %58 = getelementptr inbounds [52 x i8], [52 x i8]* %2, i64 0, i64 0
  %59 = call i64 @strlen(i8* %58) #3
  %60 = icmp eq i64 %57, %59
  br i1 %60, label %61, label %64

61:                                               ; preds = %55
  %62 = load i32, i32* %5, align 4
  %63 = call i32 (i8*, ...) @printf(i8* getelementptr inbounds ([3 x i8], [3 x i8]* @.str.1, i64 0, i64 0), i32 %62)
  br label %64

64:                                               ; preds = %61, %55
  br label %65

65:                                               ; preds = %64, %17
  br label %66

66:                                               ; preds = %65
  %67 = load i32, i32* %5, align 4
  %68 = add nsw i32 %67, 1
  store i32 %68, i32* %5, align 4
  br label %11

69:                                               ; preds = %11
  ret i32 0
}

declare dso_local i32 @__isoc99_scanf(i8*, ...) #1

; Function Attrs: nounwind readonly
declare dso_local i64 @strlen(i8*) #2

declare dso_local i32 @printf(i8*, ...) #1


!llvm.module.flags = !{!0}
!llvm.ident = !{!1}

!0 = !{i32 1, !"wchar_size", i32 4}
!1 = !{!"clang version 10.0.0-4ubuntu1 "}
